target datalayout = "e-m:e-p270:32:32-p271:32:32-p272:64:64-i64:64-i128:128-f80:128-n8:16:32:64-S128"
target triple = "x86_64-pc-linux-gnu"

%struct.ogg_stream = type { ptr, i32, i32, i32, i32, i32, i32, i32, i64, i64, i64, i64, i64, i64, i32, ptr, i32, i32, i32, [255 x i8], i32, i32, i32, i32, i32, i32, i32, i32, ptr, i64, ptr }

; Function Attrs: nounwind uwtable
define internal i32 @buf_realloc(ptr noundef %0, i32 noundef %1) #0 {
  %3 = alloca i32, align 4
  %4 = alloca ptr, align 8
  %5 = alloca i32, align 4
  %6 = alloca ptr, align 8
  %7 = alloca i32, align 4
  store ptr %0, ptr %4, align 8, !tbaa !43
  store i32 %1, ptr %5, align 4, !tbaa !37
  %8 = load ptr, ptr %4, align 8, !tbaa !43
  %9 = getelementptr inbounds nuw %struct.ogg_stream, ptr %8, i32 0, i32 1
  %10 = load i32, ptr %9, align 8, !tbaa !141
  %11 = load ptr, ptr %4, align 8, !tbaa !43
  %12 = getelementptr inbounds nuw %struct.ogg_stream, ptr %11, i32 0, i32 2
  %13 = load i32, ptr %12, align 4, !tbaa !106
  %14 = sub i32 %10, %13
  %15 = load i32, ptr %5, align 4, !tbaa !37
  %16 = icmp ult i32 %14, %15
  br i1 %16, label %17, label %42

17:                                               ; preds = %2
  call void @llvm.lifetime.start.p0(i64 8, ptr %6) #10
  %18 = load ptr, ptr %4, align 8, !tbaa !43
  %19 = getelementptr inbounds nuw %struct.ogg_stream, ptr %18, i32 0, i32 0
  %20 = load ptr, ptr %19, align 8, !tbaa !74
  %21 = load ptr, ptr %4, align 8, !tbaa !43
  %22 = getelementptr inbounds nuw %struct.ogg_stream, ptr %21, i32 0, i32 1
  %23 = load i32, ptr %22, align 8, !tbaa !141
  %24 = mul i32 2, %23
  %25 = add i32 %24, 64
  %26 = zext i32 %25 to i64
  %27 = call ptr @av_realloc(ptr noundef %20, i64 noundef %26)
  store ptr %27, ptr %6, align 8, !tbaa !83
  %28 = load ptr, ptr %6, align 8, !tbaa !83
  %29 = icmp ne ptr %28, null
  br i1 %29, label %31, label %30

30:                                               ; preds = %17
  store i32 -12, ptr %3, align 4
  store i32 1, ptr %7, align 4
  br label %39

31:                                               ; preds = %17
  %32 = load ptr, ptr %6, align 8, !tbaa !83
  %33 = load ptr, ptr %4, align 8, !tbaa !43
  %34 = getelementptr inbounds nuw %struct.ogg_stream, ptr %33, i32 0, i32 0
  store ptr %32, ptr %34, align 8, !tbaa !74
  %35 = load ptr, ptr %4, align 8, !tbaa !43
  %36 = getelementptr inbounds nuw %struct.ogg_stream, ptr %35, i32 0, i32 1
  %37 = load i32, ptr %36, align 8, !tbaa !141
  %38 = mul i32 %37, 2
  store i32 %38, ptr %36, align 8, !tbaa !141
  store i32 0, ptr %7, align 4
  br label %39

39:                                               ; preds = %31, %30
  call void @llvm.lifetime.end.p0(i64 8, ptr %6) #10
  %40 = load i32, ptr %7, align 4
  switch i32 %40, label %45 [
    i32 0, label %41
    i32 1, label %43
  ]

41:                                               ; preds = %39
  br label %42

42:                                               ; preds = %41, %2
  store i32 0, ptr %3, align 4
  br label %43

43:                                               ; preds = %42, %39
  %44 = load i32, ptr %3, align 4
  ret i32 %44

45:                                               ; preds = %39
  unreachable
}