; Function Attrs: nounwind uwtable
define internal fastcc range(i32 -12, 1) i32 @buf_realloc(ptr noundef captures(none) %0, i32 noundef %1) unnamed_addr #1 {
  %3 = getelementptr inbounds nuw i8, ptr %0, i64 8
  %4 = load i32, ptr %3, align 8, !tbaa !127
  %5 = getelementptr inbounds nuw i8, ptr %0, i64 12
  %6 = load i32, ptr %5, align 4, !tbaa !73
  %7 = sub i32 %4, %6
  %8 = icmp ult i32 %7, %1
  br i1 %8, label %9, label %17

9:                                                ; preds = %2
  %10 = load ptr, ptr %0, align 8, !tbaa !95
  %11 = shl i32 %4, 1
  %12 = add i32 %11, 64
  %13 = zext i32 %12 to i64
  %14 = tail call ptr @av_realloc(ptr noundef %10, i64 noundef %13) #9
  %.not = icmp eq ptr %14, null
  br i1 %.not, label %17, label %.thread

.thread:                                          ; preds = %9
  store ptr %14, ptr %0, align 8, !tbaa !95
  %15 = load i32, ptr %3, align 8, !tbaa !127
  %16 = shl i32 %15, 1
  store i32 %16, ptr %3, align 8, !tbaa !127
  br label %17

17:                                               ; preds = %2, %.thread, %9
  %.1 = phi i32 [ -12, %9 ], [ 0, %.thread ], [ 0, %2 ]
  ret i32 %.1
}